target datalayout = "e-m:e-p270:32:32-p271:32:32-p272:64:64-i64:64-i128:128-f80:128-n8:16:32:64-S128"
target triple = "x86_64-pc-linux-gnu"

%"struct.std::_Rb_tree_header" = type { %"struct.std::_Rb_tree_node_base", i64 }
%"struct.std::_Rb_tree_node_base" = type { i32, ptr, ptr, ptr }
%"class.std::_Rb_tree.1" = type { %"struct.std::_Rb_tree<std::tuple<(anonymous namespace)::ScalarTypeKind, unsigned int, unsigned int>, std::pair<const std::tuple<(anonymous namespace)::ScalarTypeKind, unsigned int, unsigned int>, std::unique_ptr<(anonymous namespace)::VectorType>>, std::_Select1st<std::pair<const std::tuple<(anonymous namespace)::ScalarTypeKind, unsigned int, unsigned int>, std::unique_ptr<(anonymous namespace)::VectorType>>>, std::less<std::tuple<(anonymous namespace)::ScalarTypeKind, unsigned int, unsigned int>>>::_Rb_tree_impl" }
%"struct.std::_Rb_tree<std::tuple<(anonymous namespace)::ScalarTypeKind, unsigned int, unsigned int>, std::pair<const std::tuple<(anonymous namespace)::ScalarTypeKind, unsigned int, unsigned int>, std::unique_ptr<(anonymous namespace)::VectorType>>, std::_Select1st<std::pair<const std::tuple<(anonymous namespace)::ScalarTypeKind, unsigned int, unsigned int>, std::unique_ptr<(anonymous namespace)::VectorType>>>, std::less<std::tuple<(anonymous namespace)::ScalarTypeKind, unsigned int, unsigned int>>>::_Rb_tree_impl" = type { [8 x i8], %"struct.std::_Rb_tree_header" }
%"class.std::tuple.135" = type { %"struct.std::_Tuple_impl.136" }
%"struct.std::_Tuple_impl.136" = type { %"struct.std::_Tuple_impl.137", %"struct.std::_Head_base.141" }
%"struct.std::_Tuple_impl.137" = type { %"struct.std::_Tuple_impl.138", %"struct.std::_Head_base.140" }
%"struct.std::_Tuple_impl.138" = type { %"struct.std::_Head_base.139" }
%"struct.std::_Head_base.139" = type { i32 }
%"struct.std::_Head_base.140" = type { i32 }
%"struct.std::_Head_base.141" = type { i32 }
%"class.std::unique_ptr.143" = type { %"struct.std::__uniq_ptr_data.144" }
%"struct.std::__uniq_ptr_data.144" = type { %"class.std::__uniq_ptr_impl.145" }
%"class.std::__uniq_ptr_impl.145" = type { %"class.std::tuple.146" }
%"class.std::tuple.146" = type { %"struct.std::_Tuple_impl.147" }
%"struct.std::_Tuple_impl.147" = type { %"struct.std::_Head_base.150" }
%"struct.std::_Head_base.150" = type { ptr }
%"struct.std::pair.155" = type { %"class.std::tuple.135", %"class.std::unique_ptr.143" }
%"struct.std::_Rb_tree_node.151" = type { %"struct.std::_Rb_tree_node_base", %"struct.__gnu_cxx::__aligned_membuf.152" }
%"struct.__gnu_cxx::__aligned_membuf.152" = type { [24 x i8] }

; Function Attrs: mustprogress nounwind uwtable
define internal noundef nonnull align 1 dereferenceable(1) ptr @_ZNSt10_Head_baseILm1ESt14default_deleteIN12_GLOBAL__N_110VectorTypeEELb1EE7_M_headERS4_(ptr noundef nonnull align 1 dereferenceable(1) %0) #0 align 2 {
  %2 = alloca ptr, align 8
  store ptr %0, ptr %2, align 8
  %3 = load ptr, ptr %2, align 8
  ret ptr %3
}

; Function Attrs: mustprogress nounwind uwtable
define internal noundef nonnull align 1 dereferenceable(1) ptr @_ZNSt11_Tuple_implILm1EJSt14default_deleteIN12_GLOBAL__N_110VectorTypeEEEE7_M_headERS4_(ptr noundef nonnull align 1 dereferenceable(1) %0) #0 align 2 {
  %2 = alloca ptr, align 8
  store ptr %0, ptr %2, align 8
  %3 = load ptr, ptr %2, align 8
  %4 = call noundef nonnull align 1 dereferenceable(1) ptr @_ZNSt10_Head_baseILm1ESt14default_deleteIN12_GLOBAL__N_110VectorTypeEELb1EE7_M_headERS4_(ptr noundef nonnull align 1 dereferenceable(1) %3) #11
  ret ptr %4
}

; Function Attrs: mustprogress nounwind uwtable
define internal noundef nonnull align 8 dereferenceable(8) ptr @_ZNSt10_Head_baseILm0EPN12_GLOBAL__N_110VectorTypeELb0EE7_M_headERS3_(ptr noundef nonnull align 8 dereferenceable(8) %0) #0 align 2 {
  %2 = alloca ptr, align 8
  store ptr %0, ptr %2, align 8
  %3 = load ptr, ptr %2, align 8
  %4 = getelementptr inbounds nuw %"struct.std::_Head_base.150", ptr %3, i32 0, i32 0
  ret ptr %4
}

; Function Attrs: mustprogress nounwind uwtable
define internal noundef nonnull align 1 dereferenceable(1) ptr @_ZSt12__get_helperILm1ESt14default_deleteIN12_GLOBAL__N_110VectorTypeEEJEERT0_RSt11_Tuple_implIXT_EJS4_DpT1_EE(ptr noundef nonnull align 1 dereferenceable(1) %0) #0 {
  %2 = alloca ptr, align 8
  store ptr %0, ptr %2, align 8
  %3 = load ptr, ptr %2, align 8
  %4 = call noundef nonnull align 1 dereferenceable(1) ptr @_ZNSt11_Tuple_implILm1EJSt14default_deleteIN12_GLOBAL__N_110VectorTypeEEEE7_M_headERS4_(ptr noundef nonnull align 1 dereferenceable(1) %3) #11
  ret ptr %4
}

; Function Attrs: mustprogress nounwind uwtable
define internal noundef nonnull align 8 dereferenceable(8) ptr @_ZNSt11_Tuple_implILm0EJPN12_GLOBAL__N_110VectorTypeESt14default_deleteIS1_EEE7_M_headERS5_(ptr noundef nonnull align 8 dereferenceable(8) %0) #0 align 2 {
  %2 = alloca ptr, align 8
  store ptr %0, ptr %2, align 8
  %3 = load ptr, ptr %2, align 8
  %4 = call noundef nonnull align 8 dereferenceable(8) ptr @_ZNSt10_Head_baseILm0EPN12_GLOBAL__N_110VectorTypeELb0EE7_M_headERS3_(ptr noundef nonnull align 8 dereferenceable(8) %3) #11
  ret ptr %4
}

; Function Attrs: mustprogress nounwind uwtable
define internal noundef nonnull align 1 dereferenceable(1) ptr @_ZSt3getILm1EJPN12_GLOBAL__N_110VectorTypeESt14default_deleteIS1_EEERNSt13tuple_elementIXT_ESt5tupleIJDpT0_EEE4typeERS9_(ptr noundef nonnull align 8 dereferenceable(8) %0) #0 {
  %2 = alloca ptr, align 8
  store ptr %0, ptr %2, align 8
  %3 = load ptr, ptr %2, align 8
  %4 = call noundef nonnull align 1 dereferenceable(1) ptr @_ZSt12__get_helperILm1ESt14default_deleteIN12_GLOBAL__N_110VectorTypeEEJEERT0_RSt11_Tuple_implIXT_EJS4_DpT1_EE(ptr noundef nonnull align 1 dereferenceable(1) %3) #11
  ret ptr %4
}

; Function Attrs: mustprogress nounwind uwtable
define internal noundef nonnull align 8 dereferenceable(8) ptr @_ZSt12__get_helperILm0EPN12_GLOBAL__N_110VectorTypeEJSt14default_deleteIS1_EEERT0_RSt11_Tuple_implIXT_EJS5_DpT1_EE(ptr noundef nonnull align 8 dereferenceable(8) %0) #0 {
  %2 = alloca ptr, align 8
  store ptr %0, ptr %2, align 8
  %3 = load ptr, ptr %2, align 8
  %4 = call noundef nonnull align 8 dereferenceable(8) ptr @_ZNSt11_Tuple_implILm0EJPN12_GLOBAL__N_110VectorTypeESt14default_deleteIS1_EEE7_M_headERS5_(ptr noundef nonnull align 8 dereferenceable(8) %3) #11
  ret ptr %4
}

; Function Attrs: mustprogress nounwind uwtable
define internal noundef nonnull align 1 dereferenceable(1) ptr @_ZNSt15__uniq_ptr_implIN12_GLOBAL__N_110VectorTypeESt14default_deleteIS1_EE10_M_deleterEv(ptr noundef nonnull align 8 dereferenceable(8) %0) #0 align 2 {
  %2 = alloca ptr, align 8
  store ptr %0, ptr %2, align 8
  %3 = load ptr, ptr %2, align 8
  %4 = getelementptr inbounds nuw %"class.std::__uniq_ptr_impl.145", ptr %3, i32 0, i32 0
  %5 = call noundef nonnull align 1 dereferenceable(1) ptr @_ZSt3getILm1EJPN12_GLOBAL__N_110VectorTypeESt14default_deleteIS1_EEERNSt13tuple_elementIXT_ESt5tupleIJDpT0_EEE4typeERS9_(ptr noundef nonnull align 8 dereferenceable(8) %4) #11
  ret ptr %5
}

; Function Attrs: mustprogress nounwind uwtable
define internal noundef nonnull align 8 dereferenceable(8) ptr @_ZSt3getILm0EJPN12_GLOBAL__N_110VectorTypeESt14default_deleteIS1_EEERNSt13tuple_elementIXT_ESt5tupleIJDpT0_EEE4typeERS9_(ptr noundef nonnull align 8 dereferenceable(8) %0) #0 {
  %2 = alloca ptr, align 8
  store ptr %0, ptr %2, align 8
  %3 = load ptr, ptr %2, align 8
  %4 = call noundef nonnull align 8 dereferenceable(8) ptr @_ZSt12__get_helperILm0EPN12_GLOBAL__N_110VectorTypeEJSt14default_deleteIS1_EEERT0_RSt11_Tuple_implIXT_EJS5_DpT1_EE(ptr noundef nonnull align 8 dereferenceable(8) %3) #11
  ret ptr %4
}

; Function Attrs: mustprogress nounwind uwtable
define internal void @_ZNKSt14default_deleteIN12_GLOBAL__N_110VectorTypeEEclEPS1_(ptr noundef nonnull align 1 dereferenceable(1) %0, ptr noundef %1) #0 align 2 {
  %3 = alloca ptr, align 8
  %4 = alloca ptr, align 8
  store ptr %0, ptr %3, align 8
  store ptr %1, ptr %4, align 8
  %5 = load ptr, ptr %4, align 8
  %6 = icmp eq ptr %5, null
  br i1 %6, label %11, label %7

7:                                                ; preds = %2
  %8 = load ptr, ptr %5, align 8
  %9 = getelementptr inbounds ptr, ptr %8, i64 1
  %10 = load ptr, ptr %9, align 8
  call void %10(ptr noundef nonnull align 8 dereferenceable(28) %5) #11
  br label %11

11:                                               ; preds = %7, %2
  ret void
}

; Function Attrs: mustprogress nounwind uwtable
define internal noundef nonnull align 1 dereferenceable(1) ptr @_ZNSt10unique_ptrIN12_GLOBAL__N_110VectorTypeESt14default_deleteIS1_EE11get_deleterEv(ptr noundef nonnull align 8 dereferenceable(8) %0) #0 align 2 {
  %2 = alloca ptr, align 8
  store ptr %0, ptr %2, align 8
  %3 = load ptr, ptr %2, align 8
  %4 = getelementptr inbounds nuw %"class.std::unique_ptr.143", ptr %3, i32 0, i32 0
  %5 = call noundef nonnull align 1 dereferenceable(1) ptr @_ZNSt15__uniq_ptr_implIN12_GLOBAL__N_110VectorTypeESt14default_deleteIS1_EE10_M_deleterEv(ptr noundef nonnull align 8 dereferenceable(8) %4) #11
  ret ptr %5
}

; Function Attrs: mustprogress nounwind uwtable
define internal noundef nonnull align 8 dereferenceable(8) ptr @_ZNSt15__uniq_ptr_implIN12_GLOBAL__N_110VectorTypeESt14default_deleteIS1_EE6_M_ptrEv(ptr noundef nonnull align 8 dereferenceable(8) %0) #0 align 2 {
  %2 = alloca ptr, align 8
  store ptr %0, ptr %2, align 8
  %3 = load ptr, ptr %2, align 8
  %4 = getelementptr inbounds nuw %"class.std::__uniq_ptr_impl.145", ptr %3, i32 0, i32 0
  %5 = call noundef nonnull align 8 dereferenceable(8) ptr @_ZSt3getILm0EJPN12_GLOBAL__N_110VectorTypeESt14default_deleteIS1_EEERNSt13tuple_elementIXT_ESt5tupleIJDpT0_EEE4typeERS9_(ptr noundef nonnull align 8 dereferenceable(8) %4) #11
  ret ptr %5
}

; Function Attrs: mustprogress nounwind uwtable
define internal void @_ZNSt10unique_ptrIN12_GLOBAL__N_110VectorTypeESt14default_deleteIS1_EED2Ev(ptr noundef nonnull align 8 dereferenceable(8) %0) unnamed_addr #0 align 2 {
  %2 = alloca ptr, align 8
  %3 = alloca ptr, align 8
  store ptr %0, ptr %2, align 8
  %4 = load ptr, ptr %2, align 8
  %5 = getelementptr inbounds nuw %"class.std::unique_ptr.143", ptr %4, i32 0, i32 0
  %6 = call noundef nonnull align 8 dereferenceable(8) ptr @_ZNSt15__uniq_ptr_implIN12_GLOBAL__N_110VectorTypeESt14default_deleteIS1_EE6_M_ptrEv(ptr noundef nonnull align 8 dereferenceable(8) %5) #11
  store ptr %6, ptr %3, align 8
  %7 = load ptr, ptr %3, align 8
  %8 = load ptr, ptr %7, align 8
  %9 = icmp ne ptr %8, null
  br i1 %9, label %10, label %14

10:                                               ; preds = %1
  %11 = call noundef nonnull align 1 dereferenceable(1) ptr @_ZNSt10unique_ptrIN12_GLOBAL__N_110VectorTypeESt14default_deleteIS1_EE11get_deleterEv(ptr noundef nonnull align 8 dereferenceable(8) %4) #11
  %12 = load ptr, ptr %3, align 8
  %13 = load ptr, ptr %12, align 8
  call void @_ZNKSt14default_deleteIN12_GLOBAL__N_110VectorTypeEEclEPS1_(ptr noundef nonnull align 1 dereferenceable(1) %11, ptr noundef %13)
  br label %14

14:                                               ; preds = %10, %1
  %15 = load ptr, ptr %3, align 8
  store ptr null, ptr %15, align 8
  ret void
}

; Function Attrs: mustprogress nounwind uwtable
define internal void @_ZNSt4pairIKSt5tupleIJN12_GLOBAL__N_114ScalarTypeKindEjjEESt10unique_ptrINS1_10VectorTypeESt14default_deleteIS6_EEED2Ev(ptr noundef nonnull align 8 dereferenceable(24) %0) unnamed_addr #0 align 2 {
  %2 = alloca ptr, align 8
  store ptr %0, ptr %2, align 8
  %3 = load ptr, ptr %2, align 8
  %4 = getelementptr inbounds nuw %"struct.std::pair.155", ptr %3, i32 0, i32 1
  call void @_ZNSt10unique_ptrIN12_GLOBAL__N_110VectorTypeESt14default_deleteIS1_EED2Ev(ptr noundef nonnull align 8 dereferenceable(8) %4) #11
  ret void
}

; Function Attrs: mustprogress nounwind uwtable
define internal noundef ptr @_ZN9__gnu_cxx16__aligned_membufISt4pairIKSt5tupleIJN12_GLOBAL__N_114ScalarTypeKindEjjEESt10unique_ptrINS3_10VectorTypeESt14default_deleteIS8_EEEE7_M_addrEv(ptr noundef nonnull align 8 dereferenceable(24) %0) #0 align 2 {
  %2 = alloca ptr, align 8
  store ptr %0, ptr %2, align 8
  %3 = load ptr, ptr %2, align 8
  %4 = getelementptr inbounds nuw %"struct.__gnu_cxx::__aligned_membuf.152", ptr %3, i32 0, i32 0
  ret ptr %4
}

; Function Attrs: mustprogress nounwind uwtable
define internal void @_ZNSt15__new_allocatorISt13_Rb_tree_nodeISt4pairIKSt5tupleIJN12_GLOBAL__N_114ScalarTypeKindEjjEESt10unique_ptrINS3_10VectorTypeESt14default_deleteIS8_EEEEE10deallocateEPSD_m(ptr noundef nonnull align 1 dereferenceable(1) %0, ptr noundef %1, i64 noundef %2) #0 align 2 {
  %4 = alloca ptr, align 8
  %5 = alloca ptr, align 8
  %6 = alloca i64, align 8
  store ptr %0, ptr %4, align 8
  store ptr %1, ptr %5, align 8
  store i64 %2, ptr %6, align 8
  %7 = load ptr, ptr %5, align 8
  %8 = load i64, ptr %6, align 8
  %9 = mul i64 %8, 56
  call void @_ZdlPvm(ptr noundef %7, i64 noundef %9) #12
  ret void
}

; Function Attrs: mustprogress nounwind uwtable
define internal void @_ZNSt15__new_allocatorISt13_Rb_tree_nodeISt4pairIKSt5tupleIJN12_GLOBAL__N_114ScalarTypeKindEjjEESt10unique_ptrINS3_10VectorTypeESt14default_deleteIS8_EEEEE7destroyISC_EEvPT_(ptr noundef nonnull align 1 dereferenceable(1) %0, ptr noundef %1) #0 align 2 {
  %3 = alloca ptr, align 8
  %4 = alloca ptr, align 8
  store ptr %0, ptr %3, align 8
  store ptr %1, ptr %4, align 8
  %5 = load ptr, ptr %4, align 8
  call void @_ZNSt4pairIKSt5tupleIJN12_GLOBAL__N_114ScalarTypeKindEjjEESt10unique_ptrINS1_10VectorTypeESt14default_deleteIS6_EEED2Ev(ptr noundef nonnull align 8 dereferenceable(24) %5) #11
  ret void
}

; Function Attrs: mustprogress nounwind uwtable
define internal noundef ptr @_ZN9__gnu_cxx16__aligned_membufISt4pairIKSt5tupleIJN12_GLOBAL__N_114ScalarTypeKindEjjEESt10unique_ptrINS3_10VectorTypeESt14default_deleteIS8_EEEE6_M_ptrEv(ptr noundef nonnull align 8 dereferenceable(24) %0) #0 align 2 {
  %2 = alloca ptr, align 8
  store ptr %0, ptr %2, align 8
  %3 = load ptr, ptr %2, align 8
  %4 = call noundef ptr @_ZN9__gnu_cxx16__aligned_membufISt4pairIKSt5tupleIJN12_GLOBAL__N_114ScalarTypeKindEjjEESt10unique_ptrINS3_10VectorTypeESt14default_deleteIS8_EEEE7_M_addrEv(ptr noundef nonnull align 8 dereferenceable(24) %3) #11
  ret ptr %4
}

; Function Attrs: mustprogress nounwind uwtable
define internal void @_ZNSt16allocator_traitsISaISt13_Rb_tree_nodeISt4pairIKSt5tupleIJN12_GLOBAL__N_114ScalarTypeKindEjjEESt10unique_ptrINS3_10VectorTypeESt14default_deleteIS8_EEEEEE10deallocateERSE_PSD_m(ptr noundef nonnull align 1 dereferenceable(1) %0, ptr noundef %1, i64 noundef %2) #0 align 2 {
  %4 = alloca ptr, align 8
  %5 = alloca ptr, align 8
  %6 = alloca i64, align 8
  store ptr %0, ptr %4, align 8
  store ptr %1, ptr %5, align 8
  store i64 %2, ptr %6, align 8
  %7 = load ptr, ptr %4, align 8
  %8 = load ptr, ptr %5, align 8
  %9 = load i64, ptr %6, align 8
  call void @_ZNSt15__new_allocatorISt13_Rb_tree_nodeISt4pairIKSt5tupleIJN12_GLOBAL__N_114ScalarTypeKindEjjEESt10unique_ptrINS3_10VectorTypeESt14default_deleteIS8_EEEEE10deallocateEPSD_m(ptr noundef nonnull align 1 dereferenceable(1) %7, ptr noundef %8, i64 noundef %9)
  ret void
}

; Function Attrs: mustprogress nounwind uwtable
define internal void @_ZNSt16allocator_traitsISaISt13_Rb_tree_nodeISt4pairIKSt5tupleIJN12_GLOBAL__N_114ScalarTypeKindEjjEESt10unique_ptrINS3_10VectorTypeESt14default_deleteIS8_EEEEEE7destroyISC_EEvRSE_PT_(ptr noundef nonnull align 1 dereferenceable(1) %0, ptr noundef %1) #0 align 2 {
  %3 = alloca ptr, align 8
  %4 = alloca ptr, align 8
  store ptr %0, ptr %3, align 8
  store ptr %1, ptr %4, align 8
  %5 = load ptr, ptr %3, align 8
  %6 = load ptr, ptr %4, align 8
  call void @_ZNSt15__new_allocatorISt13_Rb_tree_nodeISt4pairIKSt5tupleIJN12_GLOBAL__N_114ScalarTypeKindEjjEESt10unique_ptrINS3_10VectorTypeESt14default_deleteIS8_EEEEE7destroyISC_EEvPT_(ptr noundef nonnull align 1 dereferenceable(1) %5, ptr noundef %6) #11
  ret void
}

; Function Attrs: mustprogress nounwind uwtable
define internal noundef ptr @_ZNSt13_Rb_tree_nodeISt4pairIKSt5tupleIJN12_GLOBAL__N_114ScalarTypeKindEjjEESt10unique_ptrINS2_10VectorTypeESt14default_deleteIS7_EEEE9_M_valptrEv(ptr noundef nonnull align 8 dereferenceable(56) %0) #0 align 2 {
  %2 = alloca ptr, align 8
  store ptr %0, ptr %2, align 8
  %3 = load ptr, ptr %2, align 8
  %4 = getelementptr inbounds nuw %"struct.std::_Rb_tree_node.151", ptr %3, i32 0, i32 1
  %5 = call noundef ptr @_ZN9__gnu_cxx16__aligned_membufISt4pairIKSt5tupleIJN12_GLOBAL__N_114ScalarTypeKindEjjEESt10unique_ptrINS3_10VectorTypeESt14default_deleteIS8_EEEE6_M_ptrEv(ptr noundef nonnull align 8 dereferenceable(24) %4) #11
  ret ptr %5
}

; Function Attrs: mustprogress nounwind uwtable
define internal noundef nonnull align 1 dereferenceable(1) ptr @_ZNSt8_Rb_treeISt5tupleIJN12_GLOBAL__N_114ScalarTypeKindEjjEESt4pairIKS3_St10unique_ptrINS1_10VectorTypeESt14default_deleteIS7_EEESt10_Select1stISB_ESt4lessIS3_ESaISB_EE21_M_get_Node_allocatorEv(ptr noundef nonnull align 8 dereferenceable(48) %0) #0 align 2 {
  %2 = alloca ptr, align 8
  store ptr %0, ptr %2, align 8
  %3 = load ptr, ptr %2, align 8
  %4 = getelementptr inbounds nuw %"class.std::_Rb_tree.1", ptr %3, i32 0, i32 0
  ret ptr %4
}

; Function Attrs: mustprogress nounwind uwtable
define internal void @_ZNSt8_Rb_treeISt5tupleIJN12_GLOBAL__N_114ScalarTypeKindEjjEESt4pairIKS3_St10unique_ptrINS1_10VectorTypeESt14default_deleteIS7_EEESt10_Select1stISB_ESt4lessIS3_ESaISB_EE11_M_put_nodeEPSt13_Rb_tree_nodeISB_E(ptr noundef nonnull align 8 dereferenceable(48) %0, ptr noundef %1) #0 align 2 {
  %3 = alloca ptr, align 8
  %4 = alloca ptr, align 8
  store ptr %0, ptr %3, align 8
  store ptr %1, ptr %4, align 8
  %5 = load ptr, ptr %3, align 8
  %6 = call noundef nonnull align 1 dereferenceable(1) ptr @_ZNSt8_Rb_treeISt5tupleIJN12_GLOBAL__N_114ScalarTypeKindEjjEESt4pairIKS3_St10unique_ptrINS1_10VectorTypeESt14default_deleteIS7_EEESt10_Select1stISB_ESt4lessIS3_ESaISB_EE21_M_get_Node_allocatorEv(ptr noundef nonnull align 8 dereferenceable(48) %5) #11
  %7 = load ptr, ptr %4, align 8
  call void @_ZNSt16allocator_traitsISaISt13_Rb_tree_nodeISt4pairIKSt5tupleIJN12_GLOBAL__N_114ScalarTypeKindEjjEESt10unique_ptrINS3_10VectorTypeESt14default_deleteIS8_EEEEEE10deallocateERSE_PSD_m(ptr noundef nonnull align 1 dereferenceable(1) %6, ptr noundef %7, i64 noundef 1)
  ret void
}

; Function Attrs: mustprogress nounwind uwtable
define internal void @_ZNSt8_Rb_treeISt5tupleIJN12_GLOBAL__N_114ScalarTypeKindEjjEESt4pairIKS3_St10unique_ptrINS1_10VectorTypeESt14default_deleteIS7_EEESt10_Select1stISB_ESt4lessIS3_ESaISB_EE15_M_destroy_nodeEPSt13_Rb_tree_nodeISB_E(ptr noundef nonnull align 8 dereferenceable(48) %0, ptr noundef %1) #0 align 2 {
  %3 = alloca ptr, align 8
  %4 = alloca ptr, align 8
  store ptr %0, ptr %3, align 8
  store ptr %1, ptr %4, align 8
  %5 = load ptr, ptr %3, align 8
  %6 = call noundef nonnull align 1 dereferenceable(1) ptr @_ZNSt8_Rb_treeISt5tupleIJN12_GLOBAL__N_114ScalarTypeKindEjjEESt4pairIKS3_St10unique_ptrINS1_10VectorTypeESt14default_deleteIS7_EEESt10_Select1stISB_ESt4lessIS3_ESaISB_EE21_M_get_Node_allocatorEv(ptr noundef nonnull align 8 dereferenceable(48) %5) #11
  %7 = load ptr, ptr %4, align 8
  %8 = call noundef ptr @_ZNSt13_Rb_tree_nodeISt4pairIKSt5tupleIJN12_GLOBAL__N_114ScalarTypeKindEjjEESt10unique_ptrINS2_10VectorTypeESt14default_deleteIS7_EEEE9_M_valptrEv(ptr noundef nonnull align 8 dereferenceable(56) %7)
  call void @_ZNSt16allocator_traitsISaISt13_Rb_tree_nodeISt4pairIKSt5tupleIJN12_GLOBAL__N_114ScalarTypeKindEjjEESt10unique_ptrINS3_10VectorTypeESt14default_deleteIS8_EEEEEE7destroyISC_EEvRSE_PT_(ptr noundef nonnull align 1 dereferenceable(1) %6, ptr noundef %8) #11
  ret void
}

; Function Attrs: mustprogress nounwind uwtable
define internal void @_ZNSt8_Rb_treeISt5tupleIJN12_GLOBAL__N_114ScalarTypeKindEjjEESt4pairIKS3_St10unique_ptrINS1_10VectorTypeESt14default_deleteIS7_EEESt10_Select1stISB_ESt4lessIS3_ESaISB_EE12_M_drop_nodeEPSt13_Rb_tree_nodeISB_E(ptr noundef nonnull align 8 dereferenceable(48) %0, ptr noundef %1) #0 align 2 {
  %3 = alloca ptr, align 8
  %4 = alloca ptr, align 8
  store ptr %0, ptr %3, align 8
  store ptr %1, ptr %4, align 8
  %5 = load ptr, ptr %3, align 8
  %6 = load ptr, ptr %4, align 8
  call void @_ZNSt8_Rb_treeISt5tupleIJN12_GLOBAL__N_114ScalarTypeKindEjjEESt4pairIKS3_St10unique_ptrINS1_10VectorTypeESt14default_deleteIS7_EEESt10_Select1stISB_ESt4lessIS3_ESaISB_EE15_M_destroy_nodeEPSt13_Rb_tree_nodeISB_E(ptr noundef nonnull align 8 dereferenceable(48) %5, ptr noundef %6) #11
  %7 = load ptr, ptr %4, align 8
  call void @_ZNSt8_Rb_treeISt5tupleIJN12_GLOBAL__N_114ScalarTypeKindEjjEESt4pairIKS3_St10unique_ptrINS1_10VectorTypeESt14default_deleteIS7_EEESt10_Select1stISB_ESt4lessIS3_ESaISB_EE11_M_put_nodeEPSt13_Rb_tree_nodeISB_E(ptr noundef nonnull align 8 dereferenceable(48) %5, ptr noundef %7) #11
  ret void
}

; Function Attrs: mustprogress nounwind uwtable
define internal noundef ptr @_ZNSt8_Rb_treeISt5tupleIJN12_GLOBAL__N_114ScalarTypeKindEjjEESt4pairIKS3_St10unique_ptrINS1_10VectorTypeESt14default_deleteIS7_EEESt10_Select1stISB_ESt4lessIS3_ESaISB_EE7_S_leftEPSt18_Rb_tree_node_base(ptr noundef %0) #0 align 2 {
  %2 = alloca ptr, align 8
  store ptr %0, ptr %2, align 8
  %3 = load ptr, ptr %2, align 8
  %4 = getelementptr inbounds nuw %"struct.std::_Rb_tree_node_base", ptr %3, i32 0, i32 2
  %5 = load ptr, ptr %4, align 8
  ret ptr %5
}

; Function Attrs: mustprogress nounwind uwtable
define internal noundef ptr @_ZNSt8_Rb_treeISt5tupleIJN12_GLOBAL__N_114ScalarTypeKindEjjEESt4pairIKS3_St10unique_ptrINS1_10VectorTypeESt14default_deleteIS7_EEESt10_Select1stISB_ESt4lessIS3_ESaISB_EE8_S_rightEPSt18_Rb_tree_node_base(ptr noundef %0) #0 align 2 {
  %2 = alloca ptr, align 8
  store ptr %0, ptr %2, align 8
  %3 = load ptr, ptr %2, align 8
  %4 = getelementptr inbounds nuw %"struct.std::_Rb_tree_node_base", ptr %3, i32 0, i32 3
  %5 = load ptr, ptr %4, align 8
  ret ptr %5
}

; Function Attrs: mustprogress nounwind uwtable
define internal void @_ZNSt8_Rb_treeISt5tupleIJN12_GLOBAL__N_114ScalarTypeKindEjjEESt4pairIKS3_St10unique_ptrINS1_10VectorTypeESt14default_deleteIS7_EEESt10_Select1stISB_ESt4lessIS3_ESaISB_EE8_M_eraseEPSt13_Rb_tree_nodeISB_E(ptr noundef nonnull align 8 dereferenceable(48) %0, ptr noundef %1) #0 align 2 {
  %3 = alloca ptr, align 8
  %4 = alloca ptr, align 8
  %5 = alloca ptr, align 8
  store ptr %0, ptr %3, align 8
  store ptr %1, ptr %4, align 8
  %6 = load ptr, ptr %3, align 8
  br label %7

7:                                                ; preds = %10, %2
  %8 = load ptr, ptr %4, align 8
  %9 = icmp ne ptr %8, null
  br i1 %9, label %10, label %17

10:                                               ; preds = %7
  %11 = load ptr, ptr %4, align 8
  %12 = call noundef ptr @_ZNSt8_Rb_treeISt5tupleIJN12_GLOBAL__N_114ScalarTypeKindEjjEESt4pairIKS3_St10unique_ptrINS1_10VectorTypeESt14default_deleteIS7_EEESt10_Select1stISB_ESt4lessIS3_ESaISB_EE8_S_rightEPSt18_Rb_tree_node_base(ptr noundef %11) #11
  call void @_ZNSt8_Rb_treeISt5tupleIJN12_GLOBAL__N_114ScalarTypeKindEjjEESt4pairIKS3_St10unique_ptrINS1_10VectorTypeESt14default_deleteIS7_EEESt10_Select1stISB_ESt4lessIS3_ESaISB_EE8_M_eraseEPSt13_Rb_tree_nodeISB_E(ptr noundef nonnull align 8 dereferenceable(48) %6, ptr noundef %12)
  %13 = load ptr, ptr %4, align 8
  %14 = call noundef ptr @_ZNSt8_Rb_treeISt5tupleIJN12_GLOBAL__N_114ScalarTypeKindEjjEESt4pairIKS3_St10unique_ptrINS1_10VectorTypeESt14default_deleteIS7_EEESt10_Select1stISB_ESt4lessIS3_ESaISB_EE7_S_leftEPSt18_Rb_tree_node_base(ptr noundef %13) #11
  store ptr %14, ptr %5, align 8
  %15 = load ptr, ptr %4, align 8
  call void @_ZNSt8_Rb_treeISt5tupleIJN12_GLOBAL__N_114ScalarTypeKindEjjEESt4pairIKS3_St10unique_ptrINS1_10VectorTypeESt14default_deleteIS7_EEESt10_Select1stISB_ESt4lessIS3_ESaISB_EE12_M_drop_nodeEPSt13_Rb_tree_nodeISB_E(ptr noundef nonnull align 8 dereferenceable(48) %6, ptr noundef %15) #11
  %16 = load ptr, ptr %5, align 8
  store ptr %16, ptr %4, align 8
  br label %7, !llvm.loop !68

17:                                               ; preds = %7
  ret void
}