; Function Attrs: mustprogress nounwind uwtable
define internal fastcc void @_ZNSt8_Rb_treeISt5tupleIJN12_GLOBAL__N_114ScalarTypeKindEjjEESt4pairIKS3_St10unique_ptrINS1_10VectorTypeESt14default_deleteIS7_EEESt10_Select1stISB_ESt4lessIS3_ESaISB_EE8_M_eraseEPSt13_Rb_tree_nodeISB_E(ptr noundef %0) unnamed_addr #0 align 2 {
  %.not1 = icmp eq ptr %0, null
  br i1 %.not1, label %._crit_edge, label %.lr.ph

.lr.ph:                                           ; preds = %1, %_ZNSt8_Rb_treeISt5tupleIJN12_GLOBAL__N_114ScalarTypeKindEjjEESt4pairIKS3_St10unique_ptrINS1_10VectorTypeESt14default_deleteIS7_EEESt10_Select1stISB_ESt4lessIS3_ESaISB_EE12_M_drop_nodeEPSt13_Rb_tree_nodeISB_E.exit
  %.02 = phi ptr [ %.0.val, %_ZNSt8_Rb_treeISt5tupleIJN12_GLOBAL__N_114ScalarTypeKindEjjEESt4pairIKS3_St10unique_ptrINS1_10VectorTypeESt14default_deleteIS7_EEESt10_Select1stISB_ESt4lessIS3_ESaISB_EE12_M_drop_nodeEPSt13_Rb_tree_nodeISB_E.exit ], [ %0, %1 ]
  %2 = getelementptr i8, ptr %.02, i64 24
  %.0.val6 = load ptr, ptr %2, align 8
  tail call fastcc void @_ZNSt8_Rb_treeISt5tupleIJN12_GLOBAL__N_114ScalarTypeKindEjjEESt4pairIKS3_St10unique_ptrINS1_10VectorTypeESt14default_deleteIS7_EEESt10_Select1stISB_ESt4lessIS3_ESaISB_EE8_M_eraseEPSt13_Rb_tree_nodeISB_E(ptr noundef %.0.val6)
  %3 = getelementptr i8, ptr %.02, i64 16
  %.0.val = load ptr, ptr %3, align 8
  %4 = getelementptr inbounds i8, ptr %.02, i64 48
  %5 = load ptr, ptr %4, align 8
  %.not.i.i.i.i.i.i = icmp eq ptr %5, null
  br i1 %.not.i.i.i.i.i.i, label %_ZNSt8_Rb_treeISt5tupleIJN12_GLOBAL__N_114ScalarTypeKindEjjEESt4pairIKS3_St10unique_ptrINS1_10VectorTypeESt14default_deleteIS7_EEESt10_Select1stISB_ESt4lessIS3_ESaISB_EE12_M_drop_nodeEPSt13_Rb_tree_nodeISB_E.exit, label %_ZNKSt14default_deleteIN12_GLOBAL__N_110VectorTypeEEclEPS1_.exit.i.i.i.i.i.i

_ZNKSt14default_deleteIN12_GLOBAL__N_110VectorTypeEEclEPS1_.exit.i.i.i.i.i.i: ; preds = %.lr.ph
  %6 = load ptr, ptr %5, align 8
  %7 = getelementptr inbounds i8, ptr %6, i64 8
  %8 = load ptr, ptr %7, align 8
  tail call void %8(ptr noundef nonnull align 8 dereferenceable(28) %5) #22
  br label %_ZNSt8_Rb_treeISt5tupleIJN12_GLOBAL__N_114ScalarTypeKindEjjEESt4pairIKS3_St10unique_ptrINS1_10VectorTypeESt14default_deleteIS7_EEESt10_Select1stISB_ESt4lessIS3_ESaISB_EE12_M_drop_nodeEPSt13_Rb_tree_nodeISB_E.exit

_ZNSt8_Rb_treeISt5tupleIJN12_GLOBAL__N_114ScalarTypeKindEjjEESt4pairIKS3_St10unique_ptrINS1_10VectorTypeESt14default_deleteIS7_EEESt10_Select1stISB_ESt4lessIS3_ESaISB_EE12_M_drop_nodeEPSt13_Rb_tree_nodeISB_E.exit: ; preds = %.lr.ph, %_ZNKSt14default_deleteIN12_GLOBAL__N_110VectorTypeEEclEPS1_.exit.i.i.i.i.i.i
  tail call void @_ZdlPvm(ptr noundef nonnull %.02, i64 noundef 56) #26
  %.not = icmp eq ptr %.0.val, null
  br i1 %.not, label %._crit_edge, label %.lr.ph, !llvm.loop !420

._crit_edge:                                      ; preds = %_ZNSt8_Rb_treeISt5tupleIJN12_GLOBAL__N_114ScalarTypeKindEjjEESt4pairIKS3_St10unique_ptrINS1_10VectorTypeESt14default_deleteIS7_EEESt10_Select1stISB_ESt4lessIS3_ESaISB_EE12_M_drop_nodeEPSt13_Rb_tree_nodeISB_E.exit, %1
  ret void
}